target datalayout = "e-m:e-p270:32:32-p271:32:32-p272:64:64-i64:64-i128:128-f80:128-n8:16:32:64-S128"
target triple = "x86_64-pc-linux-gnu"

@.str = private unnamed_addr constant [22 x i8] c"slurm_protocol_defs.c\00", align 1
@__func__.slurm_add_slash_to_quotes = private unnamed_addr constant [26 x i8] c"slurm_add_slash_to_quotes\00", align 1

; Function Attrs: nounwind uwtable
define dso_local ptr @slurm_add_slash_to_quotes(ptr noundef %0) #0 {
  %2 = alloca ptr, align 8
  %3 = alloca ptr, align 8
  %4 = alloca ptr, align 8
  %5 = alloca ptr, align 8
  %6 = alloca i32, align 4
  %7 = alloca i32, align 4
  store ptr %0, ptr %3, align 8
  call void @llvm.lifetime.start.p0(i64 8, ptr %4) #11
  call void @llvm.lifetime.start.p0(i64 8, ptr %5) #11
  store ptr null, ptr %5, align 8
  call void @llvm.lifetime.start.p0(i64 4, ptr %6) #11
  store i32 0, ptr %6, align 4
  %8 = load ptr, ptr %3, align 8
  %9 = icmp ne ptr %8, null
  br i1 %9, label %10, label %15

10:                                               ; preds = %1
  %11 = load ptr, ptr %3, align 8
  %12 = call i64 @strlen(ptr noundef %11) #12
  %13 = trunc i64 %12 to i32
  store i32 %13, ptr %6, align 4
  %14 = icmp ne i32 %13, 0
  br i1 %14, label %16, label %15

15:                                               ; preds = %10, %1
  store ptr null, ptr %2, align 8
  store i32 1, ptr %7, align 4
  br label %54

16:                                               ; preds = %10
  %17 = load i32, ptr %6, align 4
  %18 = mul nsw i32 2, %17
  %19 = add nsw i32 %18, 1
  %20 = sext i32 %19 to i64
  %21 = call ptr @slurm_xcalloc(i64 noundef 1, i64 noundef %20, i1 noundef zeroext true, i1 noundef zeroext false, ptr noundef @.str, i32 noundef 269, ptr noundef @__func__.slurm_add_slash_to_quotes)
  store ptr %21, ptr %4, align 8
  store ptr %21, ptr %5, align 8
  %22 = load ptr, ptr %5, align 8
  %23 = icmp ne ptr %22, null
  br i1 %23, label %24, label %52

24:                                               ; preds = %16
  br label %25

25:                                               ; preds = %44, %24
  %26 = load ptr, ptr %3, align 8
  %27 = load i8, ptr %26, align 1
  %28 = sext i8 %27 to i32
  %29 = icmp eq i32 %28, 92
  br i1 %29, label %40, label %30

30:                                               ; preds = %25
  %31 = load ptr, ptr %3, align 8
  %32 = load i8, ptr %31, align 1
  %33 = sext i8 %32 to i32
  %34 = icmp eq i32 %33, 39
  br i1 %34, label %40, label %35

35:                                               ; preds = %30
  %36 = load ptr, ptr %3, align 8
  %37 = load i8, ptr %36, align 1
  %38 = sext i8 %37 to i32
  %39 = icmp eq i32 %38, 34
  br i1 %39, label %40, label %43

40:                                               ; preds = %35, %30, %25
  %41 = load ptr, ptr %4, align 8
  %42 = getelementptr inbounds nuw i8, ptr %41, i32 1
  store ptr %42, ptr %4, align 8
  store i8 92, ptr %41, align 1
  br label %43

43:                                               ; preds = %40, %35
  br label %44

44:                                               ; preds = %43
  %45 = load ptr, ptr %3, align 8
  %46 = getelementptr inbounds nuw i8, ptr %45, i32 1
  store ptr %46, ptr %3, align 8
  %47 = load i8, ptr %45, align 1
  %48 = load ptr, ptr %4, align 8
  %49 = getelementptr inbounds nuw i8, ptr %48, i32 1
  store ptr %49, ptr %4, align 8
  store i8 %47, ptr %48, align 1
  %50 = icmp ne i8 %47, 0
  br i1 %50, label %25, label %51, !llvm.loop !19

51:                                               ; preds = %44
  br label %52

52:                                               ; preds = %51, %16
  %53 = load ptr, ptr %5, align 8
  store ptr %53, ptr %2, align 8
  store i32 1, ptr %7, align 4
  br label %54

54:                                               ; preds = %52, %15
  call void @llvm.lifetime.end.p0(i64 4, ptr %6) #11
  call void @llvm.lifetime.end.p0(i64 8, ptr %5) #11
  call void @llvm.lifetime.end.p0(i64 8, ptr %4) #11
  %55 = load ptr, ptr %2, align 8
  ret ptr %55
}