; Function Attrs: nounwind uwtable
define dso_local ptr @slurm_add_slash_to_quotes(ptr noundef readonly captures(address_is_null) %0) local_unnamed_addr #1 {
  %.not = icmp eq ptr %0, null
  br i1 %.not, label %.loopexit, label %2

2:                                                ; preds = %1
  %3 = tail call i64 @strlen(ptr noundef nonnull dereferenceable(1) %0) #25
  %4 = trunc i64 %3 to i32
  %.not17 = icmp eq i32 %4, 0
  br i1 %.not17, label %.loopexit, label %5

5:                                                ; preds = %2
  %6 = shl nsw i32 %4, 1
  %7 = or disjoint i32 %6, 1
  %8 = sext i32 %7 to i64
  %9 = tail call ptr @slurm_xcalloc(i64 noundef 1, i64 noundef %8, i1 noundef zeroext true, i1 noundef zeroext false, ptr noundef nonnull @.str, i32 noundef 269, ptr noundef nonnull @__func__.slurm_add_slash_to_quotes) #24
  %.not18 = icmp eq ptr %9, null
  br i1 %.not18, label %.loopexit, label %.preheader

.preheader:                                       ; preds = %5, %13
  %.011 = phi ptr [ %15, %13 ], [ %0, %5 ]
  %.0 = phi ptr [ %16, %13 ], [ %9, %5 ]
  %10 = load i8, ptr %.011, align 1
  switch i8 %10, label %13 [
    i8 92, label %11
    i8 39, label %11
    i8 34, label %11
  ]

11:                                               ; preds = %.preheader, %.preheader, %.preheader
  %12 = getelementptr inbounds nuw i8, ptr %.0, i64 1
  store i8 92, ptr %.0, align 1
  %.pr = load i8, ptr %.011, align 1
  br label %13

13:                                               ; preds = %.preheader, %11
  %14 = phi i8 [ %10, %.preheader ], [ %.pr, %11 ]
  %.1 = phi ptr [ %.0, %.preheader ], [ %12, %11 ]
  %15 = getelementptr inbounds nuw i8, ptr %.011, i64 1
  %16 = getelementptr inbounds nuw i8, ptr %.1, i64 1
  store i8 %14, ptr %.1, align 1
  %.not19 = icmp eq i8 %14, 0
  br i1 %.not19, label %.loopexit, label %.preheader, !llvm.loop !19

.loopexit:                                        ; preds = %13, %5, %1, %2
  %.012 = phi ptr [ null, %2 ], [ null, %1 ], [ null, %5 ], [ %9, %13 ]
  ret ptr %.012
}